target datalayout = "e-m:e-p270:32:32-p271:32:32-p272:64:64-i64:64-i128:128-f80:128-n8:16:32:64-S128"
target triple = "x86_64-pc-linux-gnu"

%struct.lua_State = type { %struct.GCRef, i8, i8, i8, i8, %struct.MRef, %struct.GCRef, ptr, ptr, %struct.MRef, %struct.MRef, %struct.GCRef, %struct.GCRef, ptr, i32 }
%struct.MRef = type { i64 }
%struct.GCRef = type { i64 }
%union.TValue = type { i64 }
%struct.global_State = type { ptr, ptr, %struct.GCState, %struct.GCstr, i8, i8, i8, i8, %struct.StrInternState, i32, %struct.GCRef, %struct.SBuf, %union.TValue, %union.TValue, %struct.Node, %union.TValue, %struct.GCupval, i32, i32, ptr, ptr, ptr, i32, i32, %struct.GCRef, %struct.MRef, %struct.MRef, %struct.PRNGState, [39 x %struct.GCRef] }
%struct.GCState = type { i64, i64, i8, i8, i8, i8, i32, %struct.GCRef, %struct.MRef, %struct.GCRef, %struct.GCRef, %struct.GCRef, %struct.GCRef, i64, i64, i32, i32, %struct.MRef }
%struct.GCstr = type { %struct.GCRef, i8, i8, i8, i8, i32, i32, i32 }
%struct.StrInternState = type { ptr, i32, i32, i32, i8, i8, i8, i8, i64 }
%struct.SBuf = type { ptr, ptr, ptr, %struct.MRef }
%struct.Node = type { %union.TValue, %union.TValue, %struct.MRef }
%struct.GCupval = type { %struct.GCRef, i8, i8, i8, i8, %union.anon, %struct.MRef, i32 }
%union.anon = type { %struct.anon.1 }
%struct.anon.1 = type { %struct.GCRef, %struct.GCRef }
%struct.PRNGState = type { [4 x i64] }
%struct.GCfuncC = type { %struct.GCRef, i8, i8, i8, i8, %struct.GCRef, %struct.GCRef, %struct.MRef, ptr, [1 x %union.TValue] }

@.str.1 = private unnamed_addr constant [24 x i8] c"store to dead GC object\00", align 1

; Function Attrs: alwaysinline nounwind uwtable
define internal void @checklivetv(ptr noundef %0, ptr noundef %1, ptr noundef %2) #4 {
  %4 = alloca ptr, align 8
  %5 = alloca ptr, align 8
  %6 = alloca ptr, align 8
  store ptr %0, ptr %4, align 8, !tbaa !4
  store ptr %1, ptr %5, align 8, !tbaa !22
  store ptr %2, ptr %6, align 8, !tbaa !20
  ret void
}

; Function Attrs: alwaysinline nounwind uwtable
define internal void @setgcVraw(ptr noundef %0, ptr noundef %1, i32 noundef %2) #4 {
  %4 = alloca ptr, align 8
  %5 = alloca ptr, align 8
  %6 = alloca i32, align 4
  store ptr %0, ptr %4, align 8, !tbaa !22
  store ptr %1, ptr %5, align 8, !tbaa !67
  store i32 %2, ptr %6, align 4, !tbaa !16
  %7 = load ptr, ptr %5, align 8, !tbaa !67
  %8 = ptrtoint ptr %7 to i64
  %9 = load i32, ptr %6, align 4, !tbaa !16
  %10 = zext i32 %9 to i64
  %11 = shl i64 %10, 47
  %12 = or i64 %8, %11
  %13 = load ptr, ptr %4, align 8, !tbaa !22
  %14 = getelementptr inbounds nuw %struct.GCRef, ptr %13, i32 0, i32 0
  store i64 %12, ptr %14, align 8, !tbaa !26
  ret void
}

; Function Attrs: alwaysinline nounwind uwtable
define internal void @setgcV(ptr noundef %0, ptr noundef %1, ptr noundef %2, i32 noundef %3) #4 {
  %5 = alloca ptr, align 8
  %6 = alloca ptr, align 8
  %7 = alloca ptr, align 8
  %8 = alloca i32, align 4
  store ptr %0, ptr %5, align 8, !tbaa !4
  store ptr %1, ptr %6, align 8, !tbaa !22
  store ptr %2, ptr %7, align 8, !tbaa !67
  store i32 %3, ptr %8, align 4, !tbaa !16
  %9 = load ptr, ptr %6, align 8, !tbaa !22
  %10 = load ptr, ptr %7, align 8, !tbaa !67
  %11 = load i32, ptr %8, align 4, !tbaa !16
  call void @setgcVraw(ptr noundef %9, ptr noundef %10, i32 noundef %11)
  %12 = load ptr, ptr %5, align 8, !tbaa !4
  %13 = load ptr, ptr %6, align 8, !tbaa !22
  call void @checklivetv(ptr noundef %12, ptr noundef %13, ptr noundef @.str.1)
  ret void
}

; Function Attrs: alwaysinline nounwind uwtable
define internal void @settabV(ptr noundef %0, ptr noundef %1, ptr noundef %2) #4 {
  %4 = alloca ptr, align 8
  %5 = alloca ptr, align 8
  %6 = alloca ptr, align 8
  store ptr %0, ptr %4, align 8, !tbaa !4
  store ptr %1, ptr %5, align 8, !tbaa !22
  store ptr %2, ptr %6, align 8, !tbaa !65
  %7 = load ptr, ptr %4, align 8, !tbaa !4
  %8 = load ptr, ptr %5, align 8, !tbaa !22
  %9 = load ptr, ptr %6, align 8, !tbaa !65
  call void @setgcV(ptr noundef %7, ptr noundef %8, ptr noundef %9, i32 noundef -12)
  ret void
}

; Function Attrs: alwaysinline nounwind uwtable
define internal double @numberVnum(ptr noundef %0) #4 {
  %2 = alloca ptr, align 8
  store ptr %0, ptr %2, align 8, !tbaa !22
  %3 = load ptr, ptr %2, align 8, !tbaa !22
  %4 = load double, ptr %3, align 8, !tbaa !26
  ret double %4
}

; Function Attrs: nounwind uwtable
define internal ptr @index2adr(ptr noundef %0, i32 noundef %1) #0 {
  %3 = alloca ptr, align 8
  %4 = alloca ptr, align 8
  %5 = alloca i32, align 4
  %6 = alloca ptr, align 8
  %7 = alloca ptr, align 8
  %8 = alloca ptr, align 8
  %9 = alloca ptr, align 8
  %10 = alloca i32, align 4
  store ptr %0, ptr %4, align 8, !tbaa !4
  store i32 %1, ptr %5, align 4, !tbaa !16
  %11 = load i32, ptr %5, align 4, !tbaa !16
  %12 = icmp sgt i32 %11, 0
  br i1 %12, label %13, label %38

13:                                               ; preds = %2
  call void @llvm.lifetime.start.p0(i64 8, ptr %6) #9
  %14 = load ptr, ptr %4, align 8, !tbaa !4
  %15 = getelementptr inbounds nuw %struct.lua_State, ptr %14, i32 0, i32 7
  %16 = load ptr, ptr %15, align 8, !tbaa !18
  %17 = load i32, ptr %5, align 4, !tbaa !16
  %18 = sub nsw i32 %17, 1
  %19 = sext i32 %18 to i64
  %20 = getelementptr inbounds %union.TValue, ptr %16, i64 %19
  store ptr %20, ptr %6, align 8, !tbaa !22
  %21 = load ptr, ptr %6, align 8, !tbaa !22
  %22 = load ptr, ptr %4, align 8, !tbaa !4
  %23 = getelementptr inbounds nuw %struct.lua_State, ptr %22, i32 0, i32 8
  %24 = load ptr, ptr %23, align 8, !tbaa !17
  %25 = icmp ult ptr %21, %24
  br i1 %25, label %26, label %28

26:                                               ; preds = %13
  %27 = load ptr, ptr %6, align 8, !tbaa !22
  br label %36

28:                                               ; preds = %13
  %29 = load ptr, ptr %4, align 8, !tbaa !4
  %30 = getelementptr inbounds nuw %struct.lua_State, ptr %29, i32 0, i32 5
  %31 = getelementptr inbounds nuw %struct.MRef, ptr %30, i32 0, i32 0
  %32 = load i64, ptr %31, align 8, !tbaa !29
  %33 = inttoptr i64 %32 to ptr
  %34 = getelementptr inbounds nuw %struct.global_State, ptr %33, i32 0, i32 14
  %35 = getelementptr inbounds nuw %struct.Node, ptr %34, i32 0, i32 0
  br label %36

36:                                               ; preds = %28, %26
  %37 = phi ptr [ %27, %26 ], [ %35, %28 ]
  store ptr %37, ptr %3, align 8
  call void @llvm.lifetime.end.p0(i64 8, ptr %6) #9
  br label %129

38:                                               ; preds = %2
  %39 = load i32, ptr %5, align 4, !tbaa !16
  %40 = icmp sgt i32 %39, -10000
  br i1 %40, label %41, label %48

41:                                               ; preds = %38
  %42 = load ptr, ptr %4, align 8, !tbaa !4
  %43 = getelementptr inbounds nuw %struct.lua_State, ptr %42, i32 0, i32 8
  %44 = load ptr, ptr %43, align 8, !tbaa !17
  %45 = load i32, ptr %5, align 4, !tbaa !16
  %46 = sext i32 %45 to i64
  %47 = getelementptr inbounds %union.TValue, ptr %44, i64 %46
  store ptr %47, ptr %3, align 8
  br label %129

48:                                               ; preds = %38
  %49 = load i32, ptr %5, align 4, !tbaa !16
  %50 = icmp eq i32 %49, -10002
  br i1 %50, label %51, label %66

51:                                               ; preds = %48
  call void @llvm.lifetime.start.p0(i64 8, ptr %7) #9
  %52 = load ptr, ptr %4, align 8, !tbaa !4
  %53 = getelementptr inbounds nuw %struct.lua_State, ptr %52, i32 0, i32 5
  %54 = getelementptr inbounds nuw %struct.MRef, ptr %53, i32 0, i32 0
  %55 = load i64, ptr %54, align 8, !tbaa !29
  %56 = inttoptr i64 %55 to ptr
  %57 = getelementptr inbounds nuw %struct.global_State, ptr %56, i32 0, i32 12
  store ptr %57, ptr %7, align 8, !tbaa !22
  %58 = load ptr, ptr %4, align 8, !tbaa !4
  %59 = load ptr, ptr %7, align 8, !tbaa !22
  %60 = load ptr, ptr %4, align 8, !tbaa !4
  %61 = getelementptr inbounds nuw %struct.lua_State, ptr %60, i32 0, i32 12
  %62 = getelementptr inbounds nuw %struct.GCRef, ptr %61, i32 0, i32 0
  %63 = load i64, ptr %62, align 8, !tbaa !31
  %64 = inttoptr i64 %63 to ptr
  call void @settabV(ptr noundef %58, ptr noundef %59, ptr noundef %64)
  %65 = load ptr, ptr %7, align 8, !tbaa !22
  store ptr %65, ptr %3, align 8
  call void @llvm.lifetime.end.p0(i64 8, ptr %7) #9
  br label %129

66:                                               ; preds = %48
  %67 = load i32, ptr %5, align 4, !tbaa !16
  %68 = icmp eq i32 %67, -10000
  br i1 %68, label %69, label %76

69:                                               ; preds = %66
  %70 = load ptr, ptr %4, align 8, !tbaa !4
  %71 = getelementptr inbounds nuw %struct.lua_State, ptr %70, i32 0, i32 5
  %72 = getelementptr inbounds nuw %struct.MRef, ptr %71, i32 0, i32 0
  %73 = load i64, ptr %72, align 8, !tbaa !29
  %74 = inttoptr i64 %73 to ptr
  %75 = getelementptr inbounds nuw %struct.global_State, ptr %74, i32 0, i32 15
  store ptr %75, ptr %3, align 8
  br label %129

76:                                               ; preds = %66
  call void @llvm.lifetime.start.p0(i64 8, ptr %8) #9
  %77 = load ptr, ptr %4, align 8, !tbaa !4
  %78 = getelementptr inbounds nuw %struct.lua_State, ptr %77, i32 0, i32 7
  %79 = load ptr, ptr %78, align 8, !tbaa !18
  %80 = getelementptr inbounds %union.TValue, ptr %79, i64 -2
  %81 = getelementptr inbounds nuw %struct.GCRef, ptr %80, i32 0, i32 0
  %82 = load i64, ptr %81, align 8, !tbaa !26
  %83 = and i64 %82, 140737488355327
  %84 = inttoptr i64 %83 to ptr
  store ptr %84, ptr %8, align 8, !tbaa !32
  %85 = load i32, ptr %5, align 4, !tbaa !16
  %86 = icmp eq i32 %85, -10001
  br i1 %86, label %87, label %102

87:                                               ; preds = %76
  call void @llvm.lifetime.start.p0(i64 8, ptr %9) #9
  %88 = load ptr, ptr %4, align 8, !tbaa !4
  %89 = getelementptr inbounds nuw %struct.lua_State, ptr %88, i32 0, i32 5
  %90 = getelementptr inbounds nuw %struct.MRef, ptr %89, i32 0, i32 0
  %91 = load i64, ptr %90, align 8, !tbaa !29
  %92 = inttoptr i64 %91 to ptr
  %93 = getelementptr inbounds nuw %struct.global_State, ptr %92, i32 0, i32 12
  store ptr %93, ptr %9, align 8, !tbaa !22
  %94 = load ptr, ptr %4, align 8, !tbaa !4
  %95 = load ptr, ptr %9, align 8, !tbaa !22
  %96 = load ptr, ptr %8, align 8, !tbaa !32
  %97 = getelementptr inbounds nuw %struct.GCfuncC, ptr %96, i32 0, i32 5
  %98 = getelementptr inbounds nuw %struct.GCRef, ptr %97, i32 0, i32 0
  %99 = load i64, ptr %98, align 8, !tbaa !26
  %100 = inttoptr i64 %99 to ptr
  call void @settabV(ptr noundef %94, ptr noundef %95, ptr noundef %100)
  %101 = load ptr, ptr %9, align 8, !tbaa !22
  store ptr %101, ptr %3, align 8
  store i32 1, ptr %10, align 4
  call void @llvm.lifetime.end.p0(i64 8, ptr %9) #9
  br label %128

102:                                              ; preds = %76
  %103 = load i32, ptr %5, align 4, !tbaa !16
  %104 = sub nsw i32 -10002, %103
  store i32 %104, ptr %5, align 4, !tbaa !16
  %105 = load i32, ptr %5, align 4, !tbaa !16
  %106 = load ptr, ptr %8, align 8, !tbaa !32
  %107 = getelementptr inbounds nuw %struct.GCfuncC, ptr %106, i32 0, i32 4
  %108 = load i8, ptr %107, align 1, !tbaa !26
  %109 = zext i8 %108 to i32
  %110 = icmp sle i32 %105, %109
  br i1 %110, label %111, label %118

111:                                              ; preds = %102
  %112 = load ptr, ptr %8, align 8, !tbaa !32
  %113 = getelementptr inbounds nuw %struct.GCfuncC, ptr %112, i32 0, i32 9
  %114 = load i32, ptr %5, align 4, !tbaa !16
  %115 = sub nsw i32 %114, 1
  %116 = sext i32 %115 to i64
  %117 = getelementptr inbounds [1 x %union.TValue], ptr %113, i64 0, i64 %116
  br label %126

118:                                              ; preds = %102
  %119 = load ptr, ptr %4, align 8, !tbaa !4
  %120 = getelementptr inbounds nuw %struct.lua_State, ptr %119, i32 0, i32 5
  %121 = getelementptr inbounds nuw %struct.MRef, ptr %120, i32 0, i32 0
  %122 = load i64, ptr %121, align 8, !tbaa !29
  %123 = inttoptr i64 %122 to ptr
  %124 = getelementptr inbounds nuw %struct.global_State, ptr %123, i32 0, i32 14
  %125 = getelementptr inbounds nuw %struct.Node, ptr %124, i32 0, i32 0
  br label %126

126:                                              ; preds = %118, %111
  %127 = phi ptr [ %117, %111 ], [ %125, %118 ]
  store ptr %127, ptr %3, align 8
  store i32 1, ptr %10, align 4
  br label %128

128:                                              ; preds = %126, %87
  call void @llvm.lifetime.end.p0(i64 8, ptr %8) #9
  br label %129

129:                                              ; preds = %128, %69, %51, %41, %36
  %130 = load ptr, ptr %3, align 8
  ret ptr %130
}

; Function Attrs: nounwind uwtable
define dso_local double @lua_tonumberx(ptr noundef %0, i32 noundef %1, ptr noundef %2) #0 {
  %4 = alloca double, align 8
  %5 = alloca ptr, align 8
  %6 = alloca i32, align 4
  %7 = alloca ptr, align 8
  %8 = alloca ptr, align 8
  %9 = alloca %union.TValue, align 8
  %10 = alloca i32, align 4
  store ptr %0, ptr %5, align 8, !tbaa !4
  store i32 %1, ptr %6, align 4, !tbaa !16
  store ptr %2, ptr %7, align 8, !tbaa !34
  call void @llvm.lifetime.start.p0(i64 8, ptr %8) #9
  %11 = load ptr, ptr %5, align 8, !tbaa !4
  %12 = load i32, ptr %6, align 4, !tbaa !16
  %13 = call ptr @index2adr(ptr noundef %11, i32 noundef %12)
  store ptr %13, ptr %8, align 8, !tbaa !22
  call void @llvm.lifetime.start.p0(i64 8, ptr %9) #9
  %14 = load ptr, ptr %8, align 8, !tbaa !22
  %15 = load i64, ptr %14, align 8, !tbaa !26
  %16 = ashr i64 %15, 47
  %17 = trunc i64 %16 to i32
  %18 = icmp ule i32 %17, -14
  %19 = xor i1 %18, true
  %20 = xor i1 %19, true
  %21 = zext i1 %20 to i32
  %22 = sext i32 %21 to i64
  %23 = call i64 @llvm.expect.i64(i64 %22, i64 1)
  %24 = icmp ne i64 %23, 0
  br i1 %24, label %25, label %33

25:                                               ; preds = %3
  %26 = load ptr, ptr %7, align 8, !tbaa !34
  %27 = icmp ne ptr %26, null
  br i1 %27, label %28, label %30

28:                                               ; preds = %25
  %29 = load ptr, ptr %7, align 8, !tbaa !34
  store i32 1, ptr %29, align 4, !tbaa !16
  br label %30

30:                                               ; preds = %28, %25
  %31 = load ptr, ptr %8, align 8, !tbaa !22
  %32 = call double @numberVnum(ptr noundef %31)
  store double %32, ptr %4, align 8
  store i32 1, ptr %10, align 4
  br label %60

33:                                               ; preds = %3
  %34 = load ptr, ptr %8, align 8, !tbaa !22
  %35 = load i64, ptr %34, align 8, !tbaa !26
  %36 = ashr i64 %35, 47
  %37 = trunc i64 %36 to i32
  %38 = icmp eq i32 %37, -5
  br i1 %38, label %39, label %54

39:                                               ; preds = %33
  %40 = load ptr, ptr %8, align 8, !tbaa !22
  %41 = getelementptr inbounds nuw %struct.GCRef, ptr %40, i32 0, i32 0
  %42 = load i64, ptr %41, align 8, !tbaa !26
  %43 = and i64 %42, 140737488355327
  %44 = inttoptr i64 %43 to ptr
  %45 = call i32 @lj_strscan_num(ptr noundef %44, ptr noundef %9)
  %46 = icmp ne i32 %45, 0
  br i1 %46, label %47, label %54

47:                                               ; preds = %39
  %48 = load ptr, ptr %7, align 8, !tbaa !34
  %49 = icmp ne ptr %48, null
  br i1 %49, label %50, label %52

50:                                               ; preds = %47
  %51 = load ptr, ptr %7, align 8, !tbaa !34
  store i32 1, ptr %51, align 4, !tbaa !16
  br label %52

52:                                               ; preds = %50, %47
  %53 = load double, ptr %9, align 8, !tbaa !26
  store double %53, ptr %4, align 8
  store i32 1, ptr %10, align 4
  br label %60

54:                                               ; preds = %39, %33
  %55 = load ptr, ptr %7, align 8, !tbaa !34
  %56 = icmp ne ptr %55, null
  br i1 %56, label %57, label %59

57:                                               ; preds = %54
  %58 = load ptr, ptr %7, align 8, !tbaa !34
  store i32 0, ptr %58, align 4, !tbaa !16
  br label %59

59:                                               ; preds = %57, %54
  store double 0.000000e+00, ptr %4, align 8
  store i32 1, ptr %10, align 4
  br label %60

60:                                               ; preds = %59, %52, %30
  call void @llvm.lifetime.end.p0(i64 8, ptr %9) #9
  call void @llvm.lifetime.end.p0(i64 8, ptr %8) #9
  %61 = load double, ptr %4, align 8
  ret double %61
}